; Function Attrs: nofree nounwind ssp memory(argmem: readwrite) uwtable
define hidden void @_sodium_ge25519_tobytes(ptr noundef %0, ptr noundef readonly captures(none) %1) local_unnamed_addr #2 {
  %3 = alloca [32 x i8], align 16
  %4 = alloca [5 x i64], align 16
  %5 = alloca [5 x i64], align 16
  %6 = alloca [5 x i64], align 16
  call void @llvm.lifetime.start.p0(i64 40, ptr nonnull %4) #12
  call void @llvm.lifetime.start.p0(i64 40, ptr nonnull %5) #12
  call void @llvm.lifetime.start.p0(i64 40, ptr nonnull %6) #12
  %7 = getelementptr inbounds nuw i8, ptr %1, i64 80
  call void @_sodium_fe25519_invert(ptr noundef nonnull %4, ptr noundef nonnull %7)
  call fastcc void @fe25519_mul(ptr noundef nonnull %5, ptr noundef %1, ptr noundef nonnull %4)
  %8 = getelementptr inbounds nuw i8, ptr %1, i64 40
  call fastcc void @fe25519_mul(ptr noundef nonnull %6, ptr noundef nonnull %8, ptr noundef nonnull %4)
  call void @_sodium_fe25519_tobytes(ptr noundef %0, ptr noundef nonnull %6)
  call void @llvm.lifetime.start.p0(i64 32, ptr nonnull %3) #12
  call void @_sodium_fe25519_tobytes(ptr noundef nonnull %3, ptr noundef nonnull readonly %5)
  %9 = load i8, ptr %3, align 16
  call void @llvm.lifetime.end.p0(i64 32, ptr nonnull %3) #12
  %10 = getelementptr i8, ptr %0, i64 31
  %11 = load i8, ptr %10, align 1
  %12 = shl i8 %9, 7
  %13 = xor i8 %11, %12
  store i8 %13, ptr %10, align 1
  call void @llvm.lifetime.end.p0(i64 40, ptr nonnull %6) #12
  call void @llvm.lifetime.end.p0(i64 40, ptr nonnull %5) #12
  call void @llvm.lifetime.end.p0(i64 40, ptr nonnull %4) #12
  ret void
}